target datalayout = "e-m:e-p270:32:32-p271:32:32-p272:64:64-i64:64-i128:128-f80:128-n8:16:32:64-S128"
target triple = "x86_64-pc-linux-gnu"

%struct.jv_parser = type { ptr, i32, i32, i32, i32, i32, i32, ptr, i32, i32, %struct.jv, i32, %struct.jv, %struct.jv, ptr, i32, i32, i32, i32, %struct.dtoa_context, i32, i8 }
%struct.jv = type { i8, i8, i16, i32, %union.anon }
%union.anon = type { ptr }
%struct.dtoa_context = type { [8 x ptr], ptr }

; Function Attrs: nounwind uwtable
define internal void @parser_free(ptr noundef %0) #0 {
  %2 = alloca ptr, align 8
  store ptr %0, ptr %2, align 8, !tbaa !8
  %3 = load ptr, ptr %2, align 8, !tbaa !8
  call void @parser_reset(ptr noundef %3)
  %4 = load ptr, ptr %2, align 8, !tbaa !8
  %5 = getelementptr inbounds nuw %struct.jv_parser, ptr %4, i32 0, i32 10
  %6 = getelementptr inbounds nuw { i64, ptr }, ptr %5, i32 0, i32 0
  %7 = load i64, ptr %6, align 8
  %8 = getelementptr inbounds nuw { i64, ptr }, ptr %5, i32 0, i32 1
  %9 = load ptr, ptr %8, align 8
  call void @jv_free(i64 %7, ptr %9)
  %10 = load ptr, ptr %2, align 8, !tbaa !8
  %11 = getelementptr inbounds nuw %struct.jv_parser, ptr %10, i32 0, i32 12
  %12 = getelementptr inbounds nuw { i64, ptr }, ptr %11, i32 0, i32 0
  %13 = load i64, ptr %12, align 8
  %14 = getelementptr inbounds nuw { i64, ptr }, ptr %11, i32 0, i32 1
  %15 = load ptr, ptr %14, align 8
  call void @jv_free(i64 %13, ptr %15)
  %16 = load ptr, ptr %2, align 8, !tbaa !8
  %17 = getelementptr inbounds nuw %struct.jv_parser, ptr %16, i32 0, i32 7
  %18 = load ptr, ptr %17, align 8, !tbaa !21
  call void @jv_mem_free(ptr noundef %18)
  %19 = load ptr, ptr %2, align 8, !tbaa !8
  %20 = getelementptr inbounds nuw %struct.jv_parser, ptr %19, i32 0, i32 14
  %21 = load ptr, ptr %20, align 8, !tbaa !25
  call void @jv_mem_free(ptr noundef %21)
  %22 = load ptr, ptr %2, align 8, !tbaa !8
  %23 = getelementptr inbounds nuw %struct.jv_parser, ptr %22, i32 0, i32 19
  call void @jvp_dtoa_context_free(ptr noundef %23)
  ret void
}

; Function Attrs: nounwind uwtable
define dso_local void @jv_parser_free(ptr noundef %0) #0 {
  %2 = alloca ptr, align 8
  store ptr %0, ptr %2, align 8, !tbaa !8
  %3 = load ptr, ptr %2, align 8, !tbaa !8
  call void @parser_free(ptr noundef %3)
  %4 = load ptr, ptr %2, align 8, !tbaa !8
  call void @jv_mem_free(ptr noundef %4)
  ret void
}