; Function Attrs: nounwind uwtable
define dso_local void @jv_parser_free(ptr noundef initializes((64, 68)) %0) local_unnamed_addr #0 {
  tail call fastcc void @parser_reset(ptr noundef %0)
  %2 = getelementptr inbounds nuw i8, ptr %0, i64 48
  %3 = load i64, ptr %2, align 8
  %4 = getelementptr inbounds nuw i8, ptr %0, i64 56
  %5 = load ptr, ptr %4, align 8
  tail call void @jv_free(i64 %3, ptr %5) #9
  %6 = getelementptr inbounds nuw i8, ptr %0, i64 72
  %7 = load i64, ptr %6, align 8
  %8 = getelementptr inbounds nuw i8, ptr %0, i64 80
  %9 = load ptr, ptr %8, align 8
  tail call void @jv_free(i64 %7, ptr %9) #9
  %10 = getelementptr inbounds nuw i8, ptr %0, i64 32
  %11 = load ptr, ptr %10, align 8, !tbaa !20
  tail call void @jv_mem_free(ptr noundef %11) #9
  %12 = getelementptr inbounds nuw i8, ptr %0, i64 104
  %13 = load ptr, ptr %12, align 8, !tbaa !21
  tail call void @jv_mem_free(ptr noundef %13) #9
  %14 = getelementptr inbounds nuw i8, ptr %0, i64 128
  tail call void @jvp_dtoa_context_free(ptr noundef nonnull %14) #9
  tail call void @jv_mem_free(ptr noundef %0) #9
  ret void
}